target datalayout = "e-m:e-p270:32:32-p271:32:32-p272:64:64-i64:64-i128:128-f80:128-n8:16:32:64-S128"
target triple = "x86_64-pc-linux-gnu"

%struct.lxb_html_parser_t = type { ptr, ptr, ptr, ptr, ptr, i32, i32, i64 }
%struct.lxb_html_tree = type { ptr, ptr, ptr, ptr, ptr, ptr, ptr, %struct.lxb_html_tree_pending_table_t, ptr, i8, i8, i8, i8, i8, i8, ptr, ptr, ptr, i32, i64 }
%struct.lxb_html_tree_pending_table_t = type { ptr, i8 }
%struct.lxb_html_document = type { %struct.lxb_dom_document, ptr, ptr, ptr, %struct.lxb_html_document_css_t, i8, ptr, i32, i32 }
%struct.lxb_dom_document = type { %struct.lxb_dom_node, i32, i32, ptr, ptr, ptr, ptr, ptr, ptr, ptr, ptr, ptr, ptr, ptr, ptr, ptr, ptr, ptr, ptr, ptr, i8, i8, i8 }
%struct.lxb_dom_node = type { %struct.lxb_dom_event_target, i64, i64, i64, ptr, ptr, ptr, ptr, ptr, ptr, ptr, i32, i64 }
%struct.lxb_dom_event_target = type { ptr }
%struct.lxb_html_document_css_t = type { ptr, ptr, ptr, ptr, ptr, ptr, ptr, ptr, i64 }

; Function Attrs: nounwind uwtable
define internal zeroext i1 @lxb_html_document_is_original(ptr noundef %0) #0 {
  %2 = alloca ptr, align 8
  store ptr %0, ptr %2, align 8
  %3 = load ptr, ptr %2, align 8
  %4 = getelementptr inbounds %struct.lxb_dom_node, ptr %3, i32 0, i32 4
  %5 = load ptr, ptr %4, align 8
  %6 = load ptr, ptr %2, align 8
  %7 = getelementptr inbounds %struct.lxb_html_document, ptr %6, i32 0, i32 0
  %8 = icmp eq ptr %5, %7
  ret i1 %8
}

; Function Attrs: nounwind uwtable
define internal void @lxb_html_parse_fragment_chunk_destroy(ptr noundef %0) #0 {
  %2 = alloca ptr, align 8
  %3 = alloca ptr, align 8
  store ptr %0, ptr %2, align 8
  %4 = load ptr, ptr %2, align 8
  %5 = getelementptr inbounds %struct.lxb_html_parser_t, ptr %4, i32 0, i32 4
  %6 = load ptr, ptr %5, align 8
  %7 = icmp ne ptr %6, null
  br i1 %7, label %8, label %15

8:                                                ; preds = %1
  %9 = load ptr, ptr %2, align 8
  %10 = getelementptr inbounds %struct.lxb_html_parser_t, ptr %9, i32 0, i32 4
  %11 = load ptr, ptr %10, align 8
  %12 = call ptr @lxb_html_form_element_interface_destroy(ptr noundef %11)
  %13 = load ptr, ptr %2, align 8
  %14 = getelementptr inbounds %struct.lxb_html_parser_t, ptr %13, i32 0, i32 4
  store ptr null, ptr %14, align 8
  br label %15

15:                                               ; preds = %8, %1
  %16 = load ptr, ptr %2, align 8
  %17 = getelementptr inbounds %struct.lxb_html_parser_t, ptr %16, i32 0, i32 1
  %18 = load ptr, ptr %17, align 8
  %19 = getelementptr inbounds %struct.lxb_html_tree, ptr %18, i32 0, i32 2
  %20 = load ptr, ptr %19, align 8
  %21 = icmp ne ptr %20, null
  br i1 %21, label %22, label %33

22:                                               ; preds = %15
  %23 = load ptr, ptr %2, align 8
  %24 = getelementptr inbounds %struct.lxb_html_parser_t, ptr %23, i32 0, i32 1
  %25 = load ptr, ptr %24, align 8
  %26 = getelementptr inbounds %struct.lxb_html_tree, ptr %25, i32 0, i32 2
  %27 = load ptr, ptr %26, align 8
  %28 = call ptr @lxb_html_interface_destroy(ptr noundef %27)
  %29 = load ptr, ptr %2, align 8
  %30 = getelementptr inbounds %struct.lxb_html_parser_t, ptr %29, i32 0, i32 1
  %31 = load ptr, ptr %30, align 8
  %32 = getelementptr inbounds %struct.lxb_html_tree, ptr %31, i32 0, i32 2
  store ptr null, ptr %32, align 8
  br label %33

33:                                               ; preds = %22, %15
  %34 = load ptr, ptr %2, align 8
  %35 = getelementptr inbounds %struct.lxb_html_parser_t, ptr %34, i32 0, i32 1
  %36 = load ptr, ptr %35, align 8
  %37 = getelementptr inbounds %struct.lxb_html_tree, ptr %36, i32 0, i32 1
  %38 = load ptr, ptr %37, align 8
  %39 = call zeroext i1 @lxb_html_document_is_original(ptr noundef %38)
  %40 = zext i1 %39 to i32
  %41 = icmp eq i32 %40, 0
  br i1 %41, label %42, label %72

42:                                               ; preds = %33
  %43 = load ptr, ptr %2, align 8
  %44 = getelementptr inbounds %struct.lxb_html_parser_t, ptr %43, i32 0, i32 3
  %45 = load ptr, ptr %44, align 8
  %46 = icmp ne ptr %45, null
  br i1 %46, label %47, label %61

47:                                               ; preds = %42
  %48 = load ptr, ptr %2, align 8
  %49 = getelementptr inbounds %struct.lxb_html_parser_t, ptr %48, i32 0, i32 1
  %50 = load ptr, ptr %49, align 8
  %51 = getelementptr inbounds %struct.lxb_html_tree, ptr %50, i32 0, i32 1
  %52 = load ptr, ptr %51, align 8
  %53 = getelementptr inbounds %struct.lxb_dom_node, ptr %52, i32 0, i32 4
  %54 = load ptr, ptr %53, align 8
  store ptr %54, ptr %3, align 8
  %55 = load ptr, ptr %3, align 8
  %56 = getelementptr inbounds %struct.lxb_dom_document, ptr %55, i32 0, i32 0
  %57 = load ptr, ptr %2, align 8
  %58 = getelementptr inbounds %struct.lxb_html_parser_t, ptr %57, i32 0, i32 3
  %59 = load ptr, ptr %58, align 8
  %60 = getelementptr inbounds %struct.lxb_dom_node, ptr %59, i32 0, i32 7
  store ptr %56, ptr %60, align 8
  br label %61

61:                                               ; preds = %47, %42
  %62 = load ptr, ptr %2, align 8
  %63 = getelementptr inbounds %struct.lxb_html_parser_t, ptr %62, i32 0, i32 1
  %64 = load ptr, ptr %63, align 8
  %65 = getelementptr inbounds %struct.lxb_html_tree, ptr %64, i32 0, i32 1
  %66 = load ptr, ptr %65, align 8
  %67 = call ptr @lxb_html_document_interface_destroy(ptr noundef %66)
  %68 = load ptr, ptr %2, align 8
  %69 = getelementptr inbounds %struct.lxb_html_parser_t, ptr %68, i32 0, i32 1
  %70 = load ptr, ptr %69, align 8
  %71 = getelementptr inbounds %struct.lxb_html_tree, ptr %70, i32 0, i32 1
  store ptr null, ptr %71, align 8
  br label %72

72:                                               ; preds = %61, %33
  ret void
}

; Function Attrs: nounwind uwtable
define internal i32 @lxb_html_tree_chunk(ptr noundef %0, ptr noundef %1, i64 noundef %2) #0 {
  %4 = alloca ptr, align 8
  %5 = alloca ptr, align 8
  %6 = alloca i64, align 8
  store ptr %0, ptr %4, align 8
  store ptr %1, ptr %5, align 8
  store i64 %2, ptr %6, align 8
  %7 = load ptr, ptr %4, align 8
  %8 = getelementptr inbounds %struct.lxb_html_tree, ptr %7, i32 0, i32 0
  %9 = load ptr, ptr %8, align 8
  %10 = load ptr, ptr %5, align 8
  %11 = load i64, ptr %6, align 8
  %12 = call i32 @lxb_html_tokenizer_chunk(ptr noundef %9, ptr noundef %10, i64 noundef %11)
  ret i32 %12
}

; Function Attrs: nounwind uwtable
define hidden i32 @lxb_html_parse_fragment_chunk_process(ptr noundef %0, ptr noundef %1, i64 noundef %2) #0 {
  %4 = alloca i32, align 4
  %5 = alloca ptr, align 8
  %6 = alloca ptr, align 8
  %7 = alloca i64, align 8
  store ptr %0, ptr %5, align 8
  store ptr %1, ptr %6, align 8
  store i64 %2, ptr %7, align 8
  %8 = load ptr, ptr %5, align 8
  %9 = getelementptr inbounds %struct.lxb_html_parser_t, ptr %8, i32 0, i32 5
  %10 = load i32, ptr %9, align 8
  %11 = icmp ne i32 %10, 3
  br i1 %11, label %12, label %13

12:                                               ; preds = %3
  store i32 10, ptr %4, align 4
  br label %40

13:                                               ; preds = %3
  %14 = load ptr, ptr %5, align 8
  %15 = getelementptr inbounds %struct.lxb_html_parser_t, ptr %14, i32 0, i32 1
  %16 = load ptr, ptr %15, align 8
  %17 = load ptr, ptr %6, align 8
  %18 = load i64, ptr %7, align 8
  %19 = call i32 @lxb_html_tree_chunk(ptr noundef %16, ptr noundef %17, i64 noundef %18)
  %20 = load ptr, ptr %5, align 8
  %21 = getelementptr inbounds %struct.lxb_html_parser_t, ptr %20, i32 0, i32 6
  store i32 %19, ptr %21, align 4
  %22 = load ptr, ptr %5, align 8
  %23 = getelementptr inbounds %struct.lxb_html_parser_t, ptr %22, i32 0, i32 6
  %24 = load i32, ptr %23, align 4
  %25 = icmp ne i32 %24, 0
  br i1 %25, label %26, label %36

26:                                               ; preds = %13
  %27 = load ptr, ptr %5, align 8
  %28 = getelementptr inbounds %struct.lxb_html_parser_t, ptr %27, i32 0, i32 3
  %29 = load ptr, ptr %28, align 8
  %30 = call ptr @lxb_html_html_element_interface_destroy(ptr noundef %29)
  %31 = load ptr, ptr %5, align 8
  %32 = getelementptr inbounds %struct.lxb_html_parser_t, ptr %31, i32 0, i32 5
  store i32 4, ptr %32, align 8
  %33 = load ptr, ptr %5, align 8
  %34 = getelementptr inbounds %struct.lxb_html_parser_t, ptr %33, i32 0, i32 3
  store ptr null, ptr %34, align 8
  %35 = load ptr, ptr %5, align 8
  call void @lxb_html_parse_fragment_chunk_destroy(ptr noundef %35)
  br label %36

36:                                               ; preds = %26, %13
  %37 = load ptr, ptr %5, align 8
  %38 = getelementptr inbounds %struct.lxb_html_parser_t, ptr %37, i32 0, i32 6
  %39 = load i32, ptr %38, align 4
  store i32 %39, ptr %4, align 4
  br label %40

40:                                               ; preds = %36, %12
  %41 = load i32, ptr %4, align 4
  ret i32 %41
}