; Function Attrs: nounwind uwtable
define hidden i32 @lxb_html_parse_fragment_chunk_process(ptr nocapture noundef %0, ptr noundef %1, i64 noundef %2) local_unnamed_addr #0 {
  %4 = getelementptr inbounds i8, ptr %0, i64 40
  %5 = load i32, ptr %4, align 8
  %.not = icmp eq i32 %5, 3
  br i1 %.not, label %6, label %44

6:                                                ; preds = %3
  %7 = getelementptr inbounds i8, ptr %0, i64 8
  %8 = load ptr, ptr %7, align 8
  %.val = load ptr, ptr %8, align 8
  %9 = tail call i32 @lxb_html_tokenizer_chunk(ptr noundef %.val, ptr noundef %1, i64 noundef %2) #7
  %10 = getelementptr inbounds i8, ptr %0, i64 44
  store i32 %9, ptr %10, align 4
  %.not11 = icmp eq i32 %9, 0
  br i1 %.not11, label %lxb_html_parse_fragment_chunk_destroy.exit, label %11

11:                                               ; preds = %6
  %12 = getelementptr inbounds i8, ptr %0, i64 24
  %13 = load ptr, ptr %12, align 8
  %14 = tail call ptr @lxb_html_html_element_interface_destroy(ptr noundef %13) #7
  store i32 4, ptr %4, align 8
  store ptr null, ptr %12, align 8
  %15 = getelementptr inbounds i8, ptr %0, i64 32
  %16 = load ptr, ptr %15, align 8
  %.not.i = icmp eq ptr %16, null
  br i1 %.not.i, label %19, label %17

17:                                               ; preds = %11
  %18 = tail call ptr @lxb_html_form_element_interface_destroy(ptr noundef nonnull %16) #7
  store ptr null, ptr %15, align 8
  br label %19

19:                                               ; preds = %17, %11
  %20 = load ptr, ptr %7, align 8
  %21 = getelementptr inbounds i8, ptr %20, i64 16
  %22 = load ptr, ptr %21, align 8
  %.not15.i = icmp eq ptr %22, null
  br i1 %.not15.i, label %27, label %23

23:                                               ; preds = %19
  %24 = tail call ptr @lxb_html_interface_destroy(ptr noundef nonnull %22) #7
  %25 = load ptr, ptr %7, align 8
  %26 = getelementptr inbounds i8, ptr %25, i64 16
  store ptr null, ptr %26, align 8
  %.pre.i = load ptr, ptr %7, align 8
  br label %27

27:                                               ; preds = %23, %19
  %28 = phi ptr [ %.pre.i, %23 ], [ %20, %19 ]
  %29 = getelementptr inbounds i8, ptr %28, i64 8
  %30 = load ptr, ptr %29, align 8
  %31 = getelementptr inbounds i8, ptr %30, i64 32
  %32 = load ptr, ptr %31, align 8
  %33 = icmp eq ptr %32, %30
  br i1 %33, label %lxb_html_parse_fragment_chunk_destroy.exit, label %34

34:                                               ; preds = %27
  %35 = load ptr, ptr %12, align 8
  %.not16.i = icmp eq ptr %35, null
  br i1 %.not16.i, label %38, label %36

36:                                               ; preds = %34
  %37 = getelementptr inbounds i8, ptr %35, i64 56
  store ptr %32, ptr %37, align 8
  %.pre17.i = load ptr, ptr %7, align 8
  %.phi.trans.insert.i = getelementptr inbounds i8, ptr %.pre17.i, i64 8
  %.pre18.i = load ptr, ptr %.phi.trans.insert.i, align 8
  br label %38

38:                                               ; preds = %36, %34
  %39 = phi ptr [ %.pre18.i, %36 ], [ %30, %34 ]
  %40 = tail call ptr @lxb_html_document_interface_destroy(ptr noundef %39) #7
  %41 = load ptr, ptr %7, align 8
  %42 = getelementptr inbounds i8, ptr %41, i64 8
  store ptr null, ptr %42, align 8
  br label %lxb_html_parse_fragment_chunk_destroy.exit

lxb_html_parse_fragment_chunk_destroy.exit:       ; preds = %38, %27, %6
  %43 = load i32, ptr %10, align 4
  br label %44

44:                                               ; preds = %3, %lxb_html_parse_fragment_chunk_destroy.exit
  %.0 = phi i32 [ %43, %lxb_html_parse_fragment_chunk_destroy.exit ], [ 10, %3 ]
  ret i32 %.0
}